; Function Attrs: inlinehint nounwind sspstrong uwtable
define internal fastcc void @trace_vfio_pci_emulated_sub_device_id(ptr noundef %0, i16 noundef zeroext %1) unnamed_addr #21 {
  %3 = alloca %struct.timeval, align 8
  %4 = load i32, ptr @trace_events_enabled_count, align 4
  %.not.i = icmp eq i32 %4, 0
  br i1 %.not.i, label %_nocheck__trace_vfio_pci_emulated_sub_device_id.exit, label %5, !prof !5

5:                                                ; preds = %2
  %6 = load i16, ptr @_TRACE_VFIO_PCI_EMULATED_SUB_DEVICE_ID_DSTATE, align 2
  %.not3.i = icmp eq i16 %6, 0
  br i1 %.not3.i, label %_nocheck__trace_vfio_pci_emulated_sub_device_id.exit, label %7

7:                                                ; preds = %5
  %8 = load i32, ptr @qemu_loglevel, align 4
  %9 = and i32 %8, 32768
  %.not4.i = icmp eq i32 %9, 0
  br i1 %.not4.i, label %_nocheck__trace_vfio_pci_emulated_sub_device_id.exit, label %10

10:                                               ; preds = %7
  %11 = load i8, ptr @message_with_timestamp, align 1, !range !6, !noundef !7
  %12 = trunc nuw i8 %11 to i1
  br i1 %12, label %13, label %20

13:                                               ; preds = %10
  call void @llvm.lifetime.start.p0(i64 16, ptr nonnull %3) #26
  call void @llvm.memset.p0.i64(ptr noundef nonnull align 8 dereferenceable(16) %3, i8 0, i64 16, i1 false), !annotation !4
  %14 = call i32 @gettimeofday(ptr noundef nonnull %3, ptr noundef null) #26
  %15 = tail call i32 @qemu_get_thread_id() #26
  %16 = load i64, ptr %3, align 8
  %17 = getelementptr inbounds nuw i8, ptr %3, i64 8
  %18 = load i64, ptr %17, align 8
  %19 = zext i16 %1 to i32
  tail call void (ptr, ...) @qemu_log(ptr noundef nonnull @.str.162, i32 noundef %15, i64 noundef %16, i64 noundef %18, ptr noundef %0, i32 noundef %19) #26
  call void @llvm.lifetime.end.p0(i64 16, ptr nonnull %3) #26
  br label %_nocheck__trace_vfio_pci_emulated_sub_device_id.exit

20:                                               ; preds = %10
  %21 = zext i16 %1 to i32
  tail call void (ptr, ...) @qemu_log(ptr noundef nonnull @.str.163, ptr noundef %0, i32 noundef %21) #26
  br label %_nocheck__trace_vfio_pci_emulated_sub_device_id.exit

_nocheck__trace_vfio_pci_emulated_sub_device_id.exit: ; preds = %2, %5, %7, %13, %20
  ret void
}